; Function Attrs: mustprogress nofree norecurse nosync nounwind willreturn memory(read, argmem: readwrite, inaccessiblemem: none) uwtable
define internal range(i32 -12, 1) i32 @HSC_Horizontal_Half_Line_Forward(ptr noundef captures(none) %0) #7 {
  %2 = getelementptr inbounds nuw i8, ptr %0, i64 72
  %3 = load ptr, ptr %2, align 8, !tbaa !14
  %4 = getelementptr inbounds nuw i8, ptr %3, i64 4
  %5 = load i16, ptr %4, align 4, !tbaa !27
  %6 = sext i16 %5 to i32
  %7 = add nsw i32 %6, 1
  %8 = sdiv i32 %7, 2
  %9 = icmp sgt i16 %5, 0
  %10 = tail call i32 @llvm.abs.i32(i32 range(i32 -32768, 32769) %8, i1 true)
  %11 = getelementptr inbounds nuw i8, ptr %0, i64 20
  %12 = load i32, ptr %11, align 4, !tbaa !31
  br i1 %9, label %13, label %26

13:                                               ; preds = %1
  %14 = add nsw i32 %12, %10
  %15 = getelementptr inbounds nuw i8, ptr %3, i64 16
  %16 = load i32, ptr %15, align 8, !tbaa !26
  %17 = sub nsw i32 %16, %6
  %18 = icmp sgt i32 %14, %17
  %19 = sub nsw i32 %17, %12
  %spec.select.i = select i1 %18, i32 %19, i32 %10
  %20 = icmp sgt i32 %spec.select.i, 0
  br i1 %20, label %21, label %HSC_Generic.exit

21:                                               ; preds = %13
  %22 = getelementptr inbounds nuw i8, ptr %0, i64 12
  %23 = load i32, ptr %22, align 4, !tbaa !18
  %24 = add nsw i32 %23, %spec.select.i
  store i32 %24, ptr %22, align 4, !tbaa !18
  %25 = add nsw i32 %spec.select.i, %12
  br label %HSC_Generic.exit.sink.split

26:                                               ; preds = %1
  %spec.select29.i = tail call i32 @llvm.smin.i32(i32 %10, i32 %12)
  %27 = icmp sgt i32 %spec.select29.i, 0
  br i1 %27, label %28, label %HSC_Generic.exit

28:                                               ; preds = %26
  %29 = getelementptr inbounds nuw i8, ptr %0, i64 12
  %30 = load i32, ptr %29, align 4, !tbaa !18
  %31 = sub nsw i32 %30, %spec.select29.i
  store i32 %31, ptr %29, align 4, !tbaa !18
  %32 = sub nsw i32 %12, %spec.select29.i
  br label %HSC_Generic.exit.sink.split

HSC_Generic.exit.sink.split:                      ; preds = %28, %21
  %.sink = phi i32 [ %25, %21 ], [ %32, %28 ]
  store i32 %.sink, ptr %11, align 4, !tbaa !31
  br label %HSC_Generic.exit

HSC_Generic.exit:                                 ; preds = %HSC_Generic.exit.sink.split, %13, %26
  %.025.i = phi i32 [ -12, %13 ], [ -12, %26 ], [ 0, %HSC_Generic.exit.sink.split ]
  ret i32 %.025.i
}